target datalayout = "e-m:e-p270:32:32-p271:32:32-p272:64:64-i64:64-i128:128-f80:128-n8:16:32:64-S128"
target triple = "x86_64-pc-linux-gnu"

@stderr = external global ptr, align 8
@.str.13 = private unnamed_addr constant [17 x i8] c"CVodeGetNumSteps\00", align 1
@.str.20 = private unnamed_addr constant [20 x i8] c"CVodeGetNumRhsEvals\00", align 1
@.str.21 = private unnamed_addr constant [25 x i8] c"CVodeGetNumLinSolvSetups\00", align 1
@.str.22 = private unnamed_addr constant [24 x i8] c"CVodeGetNumErrTestFails\00", align 1
@.str.23 = private unnamed_addr constant [27 x i8] c"CVodeGetNumNonlinSolvIters\00", align 1
@.str.24 = private unnamed_addr constant [31 x i8] c"CVodeGetNumNonlinSolvConvFails\00", align 1
@.str.25 = private unnamed_addr constant [20 x i8] c"CVodeGetNumJacEvals\00", align 1
@.str.26 = private unnamed_addr constant [23 x i8] c"CVodeGetNumLinRhsEvals\00", align 1
@.str.27 = private unnamed_addr constant [20 x i8] c"\0AFinal Statistics:\0A\00", align 1
@.str.28 = private unnamed_addr constant [66 x i8] c"nst = %-6ld nfe  = %-6ld nsetups = %-6ld nfeLS = %-6ld nje = %ld\0A\00", align 1
@.str.29 = private unnamed_addr constant [37 x i8] c"nni = %-6ld ncfn = %-6ld netf = %ld\0A\00", align 1
@.str.30 = private unnamed_addr constant [48 x i8] c"\0ASUNDIALS_ERROR: %s() failed with retval = %d\0A\0A\00", align 1

; Function Attrs: nounwind uwtable
define internal i32 @check_retval(i32 noundef %0, ptr noundef %1) #0 {
  %3 = alloca i32, align 4
  %4 = alloca i32, align 4
  %5 = alloca ptr, align 8
  store i32 %0, ptr %4, align 4, !tbaa !16
  store ptr %1, ptr %5, align 8, !tbaa !33
  %6 = load i32, ptr %4, align 4, !tbaa !16
  %7 = icmp slt i32 %6, 0
  br i1 %7, label %8, label %13

8:                                                ; preds = %2
  %9 = load ptr, ptr @stderr, align 8, !tbaa !20
  %10 = load ptr, ptr %5, align 8, !tbaa !33
  %11 = load i32, ptr %4, align 4, !tbaa !16
  %12 = call i32 (ptr, ptr, ...) @fprintf(ptr noundef %9, ptr noundef @.str.30, ptr noundef %10, i32 noundef %11) #6
  store i32 1, ptr %3, align 4
  br label %14

13:                                               ; preds = %2
  store i32 0, ptr %3, align 4
  br label %14

14:                                               ; preds = %13, %8
  %15 = load i32, ptr %3, align 4
  ret i32 %15
}

; Function Attrs: nounwind uwtable
define internal void @PrintFinalStats(ptr noundef %0) #0 {
  %2 = alloca ptr, align 8
  %3 = alloca i32, align 4
  %4 = alloca i64, align 8
  %5 = alloca i64, align 8
  %6 = alloca i64, align 8
  %7 = alloca i64, align 8
  %8 = alloca i64, align 8
  %9 = alloca i64, align 8
  %10 = alloca i64, align 8
  %11 = alloca i64, align 8
  store ptr %0, ptr %2, align 8, !tbaa !9
  call void @llvm.lifetime.start.p0(i64 4, ptr %3) #6
  call void @llvm.lifetime.start.p0(i64 8, ptr %4) #6
  call void @llvm.lifetime.start.p0(i64 8, ptr %5) #6
  call void @llvm.lifetime.start.p0(i64 8, ptr %6) #6
  call void @llvm.lifetime.start.p0(i64 8, ptr %7) #6
  call void @llvm.lifetime.start.p0(i64 8, ptr %8) #6
  call void @llvm.lifetime.start.p0(i64 8, ptr %9) #6
  call void @llvm.lifetime.start.p0(i64 8, ptr %10) #6
  call void @llvm.lifetime.start.p0(i64 8, ptr %11) #6
  %12 = load ptr, ptr %2, align 8, !tbaa !9
  %13 = call i32 @CVodeGetNumSteps(ptr noundef %12, ptr noundef %4)
  store i32 %13, ptr %3, align 4, !tbaa !16
  %14 = load i32, ptr %3, align 4, !tbaa !16
  %15 = call i32 @check_retval(i32 noundef %14, ptr noundef @.str.13)
  %16 = load ptr, ptr %2, align 8, !tbaa !9
  %17 = call i32 @CVodeGetNumRhsEvals(ptr noundef %16, ptr noundef %5)
  store i32 %17, ptr %3, align 4, !tbaa !16
  %18 = load i32, ptr %3, align 4, !tbaa !16
  %19 = call i32 @check_retval(i32 noundef %18, ptr noundef @.str.20)
  %20 = load ptr, ptr %2, align 8, !tbaa !9
  %21 = call i32 @CVodeGetNumLinSolvSetups(ptr noundef %20, ptr noundef %6)
  store i32 %21, ptr %3, align 4, !tbaa !16
  %22 = load i32, ptr %3, align 4, !tbaa !16
  %23 = call i32 @check_retval(i32 noundef %22, ptr noundef @.str.21)
  %24 = load ptr, ptr %2, align 8, !tbaa !9
  %25 = call i32 @CVodeGetNumErrTestFails(ptr noundef %24, ptr noundef %7)
  store i32 %25, ptr %3, align 4, !tbaa !16
  %26 = load i32, ptr %3, align 4, !tbaa !16
  %27 = call i32 @check_retval(i32 noundef %26, ptr noundef @.str.22)
  %28 = load ptr, ptr %2, align 8, !tbaa !9
  %29 = call i32 @CVodeGetNumNonlinSolvIters(ptr noundef %28, ptr noundef %8)
  store i32 %29, ptr %3, align 4, !tbaa !16
  %30 = load i32, ptr %3, align 4, !tbaa !16
  %31 = call i32 @check_retval(i32 noundef %30, ptr noundef @.str.23)
  %32 = load ptr, ptr %2, align 8, !tbaa !9
  %33 = call i32 @CVodeGetNumNonlinSolvConvFails(ptr noundef %32, ptr noundef %9)
  store i32 %33, ptr %3, align 4, !tbaa !16
  %34 = load i32, ptr %3, align 4, !tbaa !16
  %35 = call i32 @check_retval(i32 noundef %34, ptr noundef @.str.24)
  %36 = load ptr, ptr %2, align 8, !tbaa !9
  %37 = call i32 @CVodeGetNumJacEvals(ptr noundef %36, ptr noundef %10)
  store i32 %37, ptr %3, align 4, !tbaa !16
  %38 = load i32, ptr %3, align 4, !tbaa !16
  %39 = call i32 @check_retval(i32 noundef %38, ptr noundef @.str.25)
  %40 = load ptr, ptr %2, align 8, !tbaa !9
  %41 = call i32 @CVodeGetNumLinRhsEvals(ptr noundef %40, ptr noundef %11)
  store i32 %41, ptr %3, align 4, !tbaa !16
  %42 = load i32, ptr %3, align 4, !tbaa !16
  %43 = call i32 @check_retval(i32 noundef %42, ptr noundef @.str.26)
  %44 = call i32 (ptr, ...) @printf(ptr noundef @.str.27)
  %45 = load i64, ptr %4, align 8, !tbaa !31
  %46 = load i64, ptr %5, align 8, !tbaa !31
  %47 = load i64, ptr %6, align 8, !tbaa !31
  %48 = load i64, ptr %11, align 8, !tbaa !31
  %49 = load i64, ptr %10, align 8, !tbaa !31
  %50 = call i32 (ptr, ...) @printf(ptr noundef @.str.28, i64 noundef %45, i64 noundef %46, i64 noundef %47, i64 noundef %48, i64 noundef %49)
  %51 = load i64, ptr %8, align 8, !tbaa !31
  %52 = load i64, ptr %9, align 8, !tbaa !31
  %53 = load i64, ptr %7, align 8, !tbaa !31
  %54 = call i32 (ptr, ...) @printf(ptr noundef @.str.29, i64 noundef %51, i64 noundef %52, i64 noundef %53)
  call void @llvm.lifetime.end.p0(i64 8, ptr %11) #6
  call void @llvm.lifetime.end.p0(i64 8, ptr %10) #6
  call void @llvm.lifetime.end.p0(i64 8, ptr %9) #6
  call void @llvm.lifetime.end.p0(i64 8, ptr %8) #6
  call void @llvm.lifetime.end.p0(i64 8, ptr %7) #6
  call void @llvm.lifetime.end.p0(i64 8, ptr %6) #6
  call void @llvm.lifetime.end.p0(i64 8, ptr %5) #6
  call void @llvm.lifetime.end.p0(i64 8, ptr %4) #6
  call void @llvm.lifetime.end.p0(i64 4, ptr %3) #6
  ret void
}