; Function Attrs: nounwind uwtable
define internal fastcc void @PrintFinalStats(ptr noundef %0) unnamed_addr #0 {
  %2 = alloca i64, align 8
  %3 = alloca i64, align 8
  %4 = alloca i64, align 8
  %5 = alloca i64, align 8
  %6 = alloca i64, align 8
  %7 = alloca i64, align 8
  %8 = alloca i64, align 8
  %9 = alloca i64, align 8
  call void @llvm.lifetime.start.p0(i64 8, ptr nonnull %2) #10
  call void @llvm.lifetime.start.p0(i64 8, ptr nonnull %3) #10
  call void @llvm.lifetime.start.p0(i64 8, ptr nonnull %4) #10
  call void @llvm.lifetime.start.p0(i64 8, ptr nonnull %5) #10
  call void @llvm.lifetime.start.p0(i64 8, ptr nonnull %6) #10
  call void @llvm.lifetime.start.p0(i64 8, ptr nonnull %7) #10
  call void @llvm.lifetime.start.p0(i64 8, ptr nonnull %8) #10
  call void @llvm.lifetime.start.p0(i64 8, ptr nonnull %9) #10
  %10 = call i32 @CVodeGetNumSteps(ptr noundef %0, ptr noundef nonnull %2) #10
  %11 = icmp slt i32 %10, 0
  br i1 %11, label %12, label %check_retval.exit

12:                                               ; preds = %1
  %13 = load ptr, ptr @stderr, align 8, !tbaa !9
  %14 = call i32 (ptr, ptr, ...) @fprintf(ptr noundef %13, ptr noundef nonnull @.str.30, ptr noundef nonnull @.str.13, i32 noundef %10) #11
  br label %check_retval.exit

check_retval.exit:                                ; preds = %1, %12
  %15 = call i32 @CVodeGetNumRhsEvals(ptr noundef %0, ptr noundef nonnull %3) #10
  %16 = icmp slt i32 %15, 0
  br i1 %16, label %17, label %check_retval.exit16

17:                                               ; preds = %check_retval.exit
  %18 = load ptr, ptr @stderr, align 8, !tbaa !9
  %19 = call i32 (ptr, ptr, ...) @fprintf(ptr noundef %18, ptr noundef nonnull @.str.30, ptr noundef nonnull @.str.20, i32 noundef %15) #11
  br label %check_retval.exit16

check_retval.exit16:                              ; preds = %check_retval.exit, %17
  %20 = call i32 @CVodeGetNumLinSolvSetups(ptr noundef %0, ptr noundef nonnull %4) #10
  %21 = icmp slt i32 %20, 0
  br i1 %21, label %22, label %check_retval.exit18

22:                                               ; preds = %check_retval.exit16
  %23 = load ptr, ptr @stderr, align 8, !tbaa !9
  %24 = call i32 (ptr, ptr, ...) @fprintf(ptr noundef %23, ptr noundef nonnull @.str.30, ptr noundef nonnull @.str.21, i32 noundef %20) #11
  br label %check_retval.exit18

check_retval.exit18:                              ; preds = %check_retval.exit16, %22
  %25 = call i32 @CVodeGetNumErrTestFails(ptr noundef %0, ptr noundef nonnull %5) #10
  %26 = icmp slt i32 %25, 0
  br i1 %26, label %27, label %check_retval.exit20

27:                                               ; preds = %check_retval.exit18
  %28 = load ptr, ptr @stderr, align 8, !tbaa !9
  %29 = call i32 (ptr, ptr, ...) @fprintf(ptr noundef %28, ptr noundef nonnull @.str.30, ptr noundef nonnull @.str.22, i32 noundef %25) #11
  br label %check_retval.exit20

check_retval.exit20:                              ; preds = %check_retval.exit18, %27
  %30 = call i32 @CVodeGetNumNonlinSolvIters(ptr noundef %0, ptr noundef nonnull %6) #10
  %31 = icmp slt i32 %30, 0
  br i1 %31, label %32, label %check_retval.exit22

32:                                               ; preds = %check_retval.exit20
  %33 = load ptr, ptr @stderr, align 8, !tbaa !9
  %34 = call i32 (ptr, ptr, ...) @fprintf(ptr noundef %33, ptr noundef nonnull @.str.30, ptr noundef nonnull @.str.23, i32 noundef %30) #11
  br label %check_retval.exit22

check_retval.exit22:                              ; preds = %check_retval.exit20, %32
  %35 = call i32 @CVodeGetNumNonlinSolvConvFails(ptr noundef %0, ptr noundef nonnull %7) #10
  %36 = icmp slt i32 %35, 0
  br i1 %36, label %37, label %check_retval.exit24

37:                                               ; preds = %check_retval.exit22
  %38 = load ptr, ptr @stderr, align 8, !tbaa !9
  %39 = call i32 (ptr, ptr, ...) @fprintf(ptr noundef %38, ptr noundef nonnull @.str.30, ptr noundef nonnull @.str.24, i32 noundef %35) #11
  br label %check_retval.exit24

check_retval.exit24:                              ; preds = %check_retval.exit22, %37
  %40 = call i32 @CVodeGetNumJacEvals(ptr noundef %0, ptr noundef nonnull %8) #10
  %41 = icmp slt i32 %40, 0
  br i1 %41, label %42, label %check_retval.exit26

42:                                               ; preds = %check_retval.exit24
  %43 = load ptr, ptr @stderr, align 8, !tbaa !9
  %44 = call i32 (ptr, ptr, ...) @fprintf(ptr noundef %43, ptr noundef nonnull @.str.30, ptr noundef nonnull @.str.25, i32 noundef %40) #11
  br label %check_retval.exit26

check_retval.exit26:                              ; preds = %check_retval.exit24, %42
  %45 = call i32 @CVodeGetNumLinRhsEvals(ptr noundef %0, ptr noundef nonnull %9) #10
  %46 = icmp slt i32 %45, 0
  br i1 %46, label %47, label %check_retval.exit28

47:                                               ; preds = %check_retval.exit26
  %48 = load ptr, ptr @stderr, align 8, !tbaa !9
  %49 = call i32 (ptr, ptr, ...) @fprintf(ptr noundef %48, ptr noundef nonnull @.str.30, ptr noundef nonnull @.str.26, i32 noundef %45) #11
  br label %check_retval.exit28

check_retval.exit28:                              ; preds = %check_retval.exit26, %47
  %puts = call i32 @puts(ptr nonnull dereferenceable(1) @str.1)
  %50 = load i64, ptr %2, align 8, !tbaa !25
  %51 = load i64, ptr %3, align 8, !tbaa !25
  %52 = load i64, ptr %4, align 8, !tbaa !25
  %53 = load i64, ptr %9, align 8, !tbaa !25
  %54 = load i64, ptr %8, align 8, !tbaa !25
  %55 = call i32 (ptr, ...) @printf(ptr noundef nonnull dereferenceable(1) @.str.28, i64 noundef %50, i64 noundef %51, i64 noundef %52, i64 noundef %53, i64 noundef %54)
  %56 = load i64, ptr %6, align 8, !tbaa !25
  %57 = load i64, ptr %7, align 8, !tbaa !25
  %58 = load i64, ptr %5, align 8, !tbaa !25
  %59 = call i32 (ptr, ...) @printf(ptr noundef nonnull dereferenceable(1) @.str.29, i64 noundef %56, i64 noundef %57, i64 noundef %58)
  call void @llvm.lifetime.end.p0(i64 8, ptr nonnull %9) #10
  call void @llvm.lifetime.end.p0(i64 8, ptr nonnull %8) #10
  call void @llvm.lifetime.end.p0(i64 8, ptr nonnull %7) #10
  call void @llvm.lifetime.end.p0(i64 8, ptr nonnull %6) #10
  call void @llvm.lifetime.end.p0(i64 8, ptr nonnull %5) #10
  call void @llvm.lifetime.end.p0(i64 8, ptr nonnull %4) #10
  call void @llvm.lifetime.end.p0(i64 8, ptr nonnull %3) #10
  call void @llvm.lifetime.end.p0(i64 8, ptr nonnull %2) #10
  ret void
}